; Function Attrs: mustprogress uwtable
define void @_ZNK19OpenColorIO_v2_4dev4Look18createEditableCopyEv(ptr noalias sret(%"class.std::shared_ptr") align 8 %agg.result, ptr nocapture noundef nonnull readonly align 8 dereferenceable(8) %this) local_unnamed_addr #0 align 2 personality ptr @__gxx_personality_v0 {
entry:
  tail call void @_ZN19OpenColorIO_v2_4dev4Look6CreateEv(ptr sret(%"class.std::shared_ptr") align 8 %agg.result)
  %0 = load ptr, ptr %this, align 8
  %1 = load ptr, ptr %agg.result, align 8
  %2 = load ptr, ptr %1, align 8
  %call3 = invoke noundef nonnull align 8 dereferenceable(128) ptr @_ZN19OpenColorIO_v2_4dev4Look4ImplaSERKS1_(ptr noundef nonnull align 8 dereferenceable(128) %2, ptr noundef nonnull align 8 dereferenceable(128) %0)
          to label %nrvo.skipdtor unwind label %lpad

lpad:                                             ; preds = %entry
  %3 = landingpad { ptr, i32 }
          cleanup
  tail call void @_ZNSt10shared_ptrIN19OpenColorIO_v2_4dev4LookEED2Ev(ptr noundef nonnull align 8 dereferenceable(16) %agg.result) #12
  resume { ptr, i32 } %3

nrvo.skipdtor:                                    ; preds = %entry
  ret void
}